(dp1
S'__Corpus__'
p2
ccopy_reg
_reconstructor
p3
(cproj.giv.reverend.thomas
BayesData
p4
c__builtin__
dict
p5
(dtRp6
(dp7
S'tokenCount'
p8
I0
sS'training'
p9
(lp10
sS'name'
p11
g2
sS'pool'
p12
NsS'trainCount'
p13
I0
sbs.